; ModuleID = '50/155.c'
source_filename = "50/155.c"
target datalayout = "e-m:e-p270:32:32-p271:32:32-p272:64:64-i64:64-f80:128-n8:16:32:64-S128"
target triple = "x86_64-pc-linux-gnu"

@.str = private unnamed_addr constant [3 x i8] c"%d\00", align 1
@.str.1 = private unnamed_addr constant [4 x i8] c"%d\0A\00", align 1

; Function Attrs: noinline nounwind uwtable
define dso_local i32 @main() #0 {
  %1 = alloca i32, align 4
  %2 = alloca i32, align 4
  %3 = alloca i32, align 4
  %4 = alloca i32, align 4
  %5 = alloca i32, align 4
  store i32 0, i32* %1, align 4
  %6 = call i32 (i8*, ...) @__isoc99_scanf(i8* getelementptr inbounds ([3 x i8], [3 x i8]* @.str, i64 0, i64 0), i32* %2)
  store i32 0, i32* %3, align 4
  br label %7

7:                                                ; preds = %53, %0
  %8 = load i32, i32* %3, align 4
  %9 = icmp slt i32 %8, 12
  br i1 %9, label %10, label %56

10:                                               ; preds = %7
  %11 = load i32, i32* %3, align 4
  %12 = icmp eq i32 %11, 0
  br i1 %12, label %13, label %14

13:                                               ; preds = %10
  store i32 13, i32* %4, align 4
  br label %40

14:                                               ; preds = %10
  %15 = load i32, i32* %3, align 4
  %16 = icmp eq i32 %15, 4
  br i1 %16, label %26, label %17

17:                                               ; preds = %14
  %18 = load i32, i32* %3, align 4
  %19 = icmp eq i32 %18, 6
  br i1 %19, label %26, label %20

20:                                               ; preds = %17
  %21 = load i32, i32* %3, align 4
  %22 = icmp eq i32 %21, 9
  br i1 %22, label %26, label %23

23:                                               ; preds = %20
  %24 = load i32, i32* %3, align 4
  %25 = icmp eq i32 %24, 11
  br i1 %25, label %26, label %29

26:                                               ; preds = %23, %20, %17, %14
  %27 = load i32, i32* %4, align 4
  %28 = add nsw i32 %27, 30
  store i32 %28, i32* %4, align 4
  br label %39

29:                                               ; preds = %23
  %30 = load i32, i32* %3, align 4
  %31 = icmp eq i32 %30, 2
  br i1 %31, label %32, label %35

32:                                               ; preds = %29
  %33 = load i32, i32* %4, align 4
  %34 = add nsw i32 %33, 28
  store i32 %34, i32* %4, align 4
  br label %38

35:                                               ; preds = %29
  %36 = load i32, i32* %4, align 4
  %37 = add nsw i32 %36, 31
  store i32 %37, i32* %4, align 4
  br label %38

38:                                               ; preds = %35, %32
  br label %39

39:                                               ; preds = %38, %26
  br label %40

40:                                               ; preds = %39, %13
  %41 = load i32, i32* %4, align 4
  %42 = load i32, i32* %2, align 4
  %43 = add nsw i32 %41, %42
  %44 = sub nsw i32 %43, 1
  %45 = srem i32 %44, 7
  store i32 %45, i32* %5, align 4
  %46 = load i32, i32* %5, align 4
  %47 = icmp eq i32 %46, 5
  br i1 %47, label %48, label %52

48:                                               ; preds = %40
  %49 = load i32, i32* %3, align 4
  %50 = add nsw i32 %49, 1
  %51 = call i32 (i8*, ...) @printf(i8* getelementptr inbounds ([4 x i8], [4 x i8]* @.str.1, i64 0, i64 0), i32 %50)
  br label %52

52:                                               ; preds = %48, %40
  br label %53

53:                                               ; preds = %52
  %54 = load i32, i32* %3, align 4
  %55 = add nsw i32 %54, 1
  store i32 %55, i32* %3, align 4
  br label %7

56:                                               ; preds = %7
  ret i32 0
}

declare dso_local i32 @__isoc99_scanf(i8*, ...) #1

declare dso_local i32 @printf(i8*, ...) #1


!llvm.module.flags = !{!0}
!llvm.ident = !{!1}

!0 = !{i32 1, !"wchar_size", i32 4}
!1 = !{!"clang version 10.0.0-4ubuntu1 "}
